
/home/jiunian/Program/ysyx-workbench/am-kernels/tests/cpu-tests/build/fact-riscv32-nemu.elf:     file format elf32-littleriscv


Disassembly of section .text:

80000000 <_start>:
80000000:	00000413          	li	s0,0
80000004:	00009117          	auipc	sp,0x9
80000008:	ffc10113          	addi	sp,sp,-4 # 80009000 <_end>
8000000c:	0c8000ef          	jal	ra,800000d4 <_trm_init>

80000010 <check>:
80000010:	00050463          	beqz	a0,80000018 <check+0x8>
80000014:	00008067          	ret
80000018:	ffc10113          	addi	sp,sp,-4
8000001c:	00100513          	li	a0,1
80000020:	00112023          	sw	ra,0(sp)
80000024:	0a4000ef          	jal	ra,800000c8 <halt>

80000028 <main>:
80000028:	ff410113          	addi	sp,sp,-12
8000002c:	00812223          	sw	s0,4(sp)
80000030:	00912023          	sw	s1,0(sp)
80000034:	00112423          	sw	ra,8(sp)
80000038:	00000497          	auipc	s1,0x0
8000003c:	0f448493          	addi	s1,s1,244 # 8000012c <f>
80000040:	00000413          	li	s0,0
80000044:	00100713          	li	a4,1
80000048:	00241793          	slli	a5,s0,0x2
8000004c:	00000697          	auipc	a3,0x0
80000050:	0ac68693          	addi	a3,a3,172 # 800000f8 <ans>
80000054:	00f687b3          	add	a5,a3,a5
80000058:	0007a503          	lw	a0,0(a5)
8000005c:	00e4a023          	sw	a4,0(s1)
80000060:	00140413          	addi	s0,s0,1
80000064:	40e50533          	sub	a0,a0,a4
80000068:	00153513          	seqz	a0,a0
8000006c:	fa5ff0ef          	jal	ra,80000010 <check>
80000070:	00d00793          	li	a5,13
80000074:	02f40863          	beq	s0,a5,800000a4 <main+0x7c>
80000078:	00100793          	li	a5,1
8000007c:	04f40063          	beq	s0,a5,800000bc <main+0x94>
80000080:	00040793          	mv	a5,s0
80000084:	00100713          	li	a4,1
80000088:	00100613          	li	a2,1
8000008c:	00078693          	mv	a3,a5
80000090:	fff78793          	addi	a5,a5,-1
80000094:	02d70733          	mul	a4,a4,a3
80000098:	fec79ae3          	bne	a5,a2,8000008c <main+0x64>
8000009c:	00448493          	addi	s1,s1,4
800000a0:	fa9ff06f          	j	80000048 <main+0x20>
800000a4:	00812083          	lw	ra,8(sp)
800000a8:	00412403          	lw	s0,4(sp)
800000ac:	00012483          	lw	s1,0(sp)
800000b0:	00000513          	li	a0,0
800000b4:	00c10113          	addi	sp,sp,12
800000b8:	00008067          	ret
800000bc:	00100713          	li	a4,1
800000c0:	00448493          	addi	s1,s1,4
800000c4:	f85ff06f          	j	80000048 <main+0x20>

800000c8 <halt>:
800000c8:	00050513          	mv	a0,a0
800000cc:	00100073          	ebreak
800000d0:	0000006f          	j	800000d0 <halt+0x8>

800000d4 <_trm_init>:
800000d4:	ffc10113          	addi	sp,sp,-4
800000d8:	00000517          	auipc	a0,0x0
800000dc:	01c50513          	addi	a0,a0,28 # 800000f4 <_etext>
800000e0:	00112023          	sw	ra,0(sp)
800000e4:	f45ff0ef          	jal	ra,80000028 <main>
800000e8:	00050513          	mv	a0,a0
800000ec:	00100073          	ebreak
800000f0:	0000006f          	j	800000f0 <_trm_init+0x1c>
