
/home/jiunian/Program/ysyx-workbench/am-kernels/tests/cpu-tests/build/hello-str-riscv32-nemu.elf:     file format elf32-littleriscv


Disassembly of section .text:

80000000 <_start>:
80000000:	00000413          	li	s0,0
80000004:	00009117          	auipc	sp,0x9
80000008:	ffc10113          	addi	sp,sp,-4 # 80009000 <_end>
8000000c:	0e8000ef          	jal	ra,800000f4 <_trm_init>

80000010 <check>:
80000010:	00050463          	beqz	a0,80000018 <check+0x8>
80000014:	00008067          	ret
80000018:	ffc10113          	addi	sp,sp,-4
8000001c:	00100513          	li	a0,1
80000020:	00112023          	sw	ra,0(sp)
80000024:	0c4000ef          	jal	ra,800000e8 <halt>

80000028 <main>:
80000028:	ff810113          	addi	sp,sp,-8
8000002c:	00812023          	sw	s0,0(sp)
80000030:	00000417          	auipc	s0,0x0
80000034:	3e440413          	addi	s0,s0,996 # 80000414 <buf>
80000038:	00000617          	auipc	a2,0x0
8000003c:	39860613          	addi	a2,a2,920 # 800003d0 <_etext>
80000040:	00000597          	auipc	a1,0x0
80000044:	3a058593          	addi	a1,a1,928 # 800003e0 <_etext+0x10>
80000048:	00040513          	mv	a0,s0
8000004c:	00112223          	sw	ra,4(sp)
80000050:	14c000ef          	jal	ra,8000019c <sprintf>
80000054:	00000597          	auipc	a1,0x0
80000058:	37c58593          	addi	a1,a1,892 # 800003d0 <_etext>
8000005c:	00040513          	mv	a0,s0
80000060:	2c0000ef          	jal	ra,80000320 <strcmp>
80000064:	00153513          	seqz	a0,a0
80000068:	fa9ff0ef          	jal	ra,80000010 <check>
8000006c:	00200713          	li	a4,2
80000070:	00100693          	li	a3,1
80000074:	00100613          	li	a2,1
80000078:	00000597          	auipc	a1,0x0
8000007c:	36c58593          	addi	a1,a1,876 # 800003e4 <_etext+0x14>
80000080:	00040513          	mv	a0,s0
80000084:	118000ef          	jal	ra,8000019c <sprintf>
80000088:	00000597          	auipc	a1,0x0
8000008c:	36c58593          	addi	a1,a1,876 # 800003f4 <_etext+0x24>
80000090:	00040513          	mv	a0,s0
80000094:	28c000ef          	jal	ra,80000320 <strcmp>
80000098:	00153513          	seqz	a0,a0
8000009c:	f75ff0ef          	jal	ra,80000010 <check>
800000a0:	00c00713          	li	a4,12
800000a4:	00a00693          	li	a3,10
800000a8:	00200613          	li	a2,2
800000ac:	00000597          	auipc	a1,0x0
800000b0:	33858593          	addi	a1,a1,824 # 800003e4 <_etext+0x14>
800000b4:	00040513          	mv	a0,s0
800000b8:	0e4000ef          	jal	ra,8000019c <sprintf>
800000bc:	00000597          	auipc	a1,0x0
800000c0:	34458593          	addi	a1,a1,836 # 80000400 <_etext+0x30>
800000c4:	00040513          	mv	a0,s0
800000c8:	258000ef          	jal	ra,80000320 <strcmp>
800000cc:	00153513          	seqz	a0,a0
800000d0:	f41ff0ef          	jal	ra,80000010 <check>
800000d4:	00412083          	lw	ra,4(sp)
800000d8:	00012403          	lw	s0,0(sp)
800000dc:	00000513          	li	a0,0
800000e0:	00810113          	addi	sp,sp,8
800000e4:	00008067          	ret

800000e8 <halt>:
800000e8:	00050513          	mv	a0,a0
800000ec:	00100073          	ebreak
800000f0:	0000006f          	j	800000f0 <halt+0x8>

800000f4 <_trm_init>:
800000f4:	ffc10113          	addi	sp,sp,-4
800000f8:	00000517          	auipc	a0,0x0
800000fc:	31850513          	addi	a0,a0,792 # 80000410 <mainargs>
80000100:	00112023          	sw	ra,0(sp)
80000104:	f25ff0ef          	jal	ra,80000028 <main>
80000108:	00050513          	mv	a0,a0
8000010c:	00100073          	ebreak
80000110:	0000006f          	j	80000110 <_trm_init+0x1c>

80000114 <intToStr.part.0>:
80000114:	00000893          	li	a7,0
80000118:	00055663          	bgez	a0,80000124 <intToStr.part.0+0x10>
8000011c:	40a00533          	neg	a0,a0
80000120:	00100893          	li	a7,1
80000124:	00000693          	li	a3,0
80000128:	00a00813          	li	a6,10
8000012c:	030567b3          	rem	a5,a0,a6
80000130:	00068713          	mv	a4,a3
80000134:	00168693          	addi	a3,a3,1
80000138:	00d58633          	add	a2,a1,a3
8000013c:	03054533          	div	a0,a0,a6
80000140:	03078793          	addi	a5,a5,48
80000144:	fef60fa3          	sb	a5,-1(a2)
80000148:	fe0512e3          	bnez	a0,8000012c <intToStr.part.0+0x18>
8000014c:	04088263          	beqz	a7,80000190 <intToStr.part.0+0x7c>
80000150:	02d00793          	li	a5,45
80000154:	00e58733          	add	a4,a1,a4
80000158:	00f60023          	sb	a5,0(a2)
8000015c:	00070123          	sb	zero,2(a4)
80000160:	00068713          	mv	a4,a3
80000164:	00e587b3          	add	a5,a1,a4
80000168:	0007c603          	lbu	a2,0(a5)
8000016c:	0005c683          	lbu	a3,0(a1)
80000170:	00150513          	addi	a0,a0,1
80000174:	00c58023          	sb	a2,0(a1)
80000178:	00d78023          	sb	a3,0(a5)
8000017c:	40a706b3          	sub	a3,a4,a0
80000180:	00158593          	addi	a1,a1,1
80000184:	fff78793          	addi	a5,a5,-1
80000188:	fed540e3          	blt	a0,a3,80000168 <intToStr.part.0+0x54>
8000018c:	00008067          	ret
80000190:	00060023          	sb	zero,0(a2)
80000194:	fc0718e3          	bnez	a4,80000164 <intToStr.part.0+0x50>
80000198:	00008067          	ret

8000019c <sprintf>:
8000019c:	fc810113          	addi	sp,sp,-56
800001a0:	02812023          	sw	s0,32(sp)
800001a4:	02e12823          	sw	a4,48(sp)
800001a8:	02112223          	sw	ra,36(sp)
800001ac:	00912e23          	sw	s1,28(sp)
800001b0:	02c12423          	sw	a2,40(sp)
800001b4:	02d12623          	sw	a3,44(sp)
800001b8:	02f12a23          	sw	a5,52(sp)
800001bc:	0005c783          	lbu	a5,0(a1)
800001c0:	02810713          	addi	a4,sp,40
800001c4:	00e12223          	sw	a4,4(sp)
800001c8:	00050413          	mv	s0,a0
800001cc:	12078c63          	beqz	a5,80000304 <sprintf+0x168>
800001d0:	00058813          	mv	a6,a1
800001d4:	00000493          	li	s1,0
800001d8:	0200006f          	j	800001f8 <sprintf+0x5c>
800001dc:	00f40023          	sb	a5,0(s0)
800001e0:	00080593          	mv	a1,a6
800001e4:	0015c783          	lbu	a5,1(a1)
800001e8:	00148493          	addi	s1,s1,1
800001ec:	00140413          	addi	s0,s0,1
800001f0:	00158813          	addi	a6,a1,1
800001f4:	06078863          	beqz	a5,80000264 <sprintf+0xc8>
800001f8:	02500713          	li	a4,37
800001fc:	fee790e3          	bne	a5,a4,800001dc <sprintf+0x40>
80000200:	00184783          	lbu	a5,1(a6)
80000204:	06400713          	li	a4,100
80000208:	06e78c63          	beq	a5,a4,80000280 <sprintf+0xe4>
8000020c:	07300713          	li	a4,115
80000210:	04e79263          	bne	a5,a4,80000254 <sprintf+0xb8>
80000214:	00412783          	lw	a5,4(sp)
80000218:	0007a683          	lw	a3,0(a5)
8000021c:	00478793          	addi	a5,a5,4
80000220:	00f12223          	sw	a5,4(sp)
80000224:	0006c703          	lbu	a4,0(a3)
80000228:	02070663          	beqz	a4,80000254 <sprintf+0xb8>
8000022c:	00040793          	mv	a5,s0
80000230:	00e78023          	sb	a4,0(a5)
80000234:	0016c703          	lbu	a4,1(a3)
80000238:	00178793          	addi	a5,a5,1
8000023c:	00978633          	add	a2,a5,s1
80000240:	00168693          	addi	a3,a3,1
80000244:	40860633          	sub	a2,a2,s0
80000248:	fe0714e3          	bnez	a4,80000230 <sprintf+0x94>
8000024c:	00060493          	mv	s1,a2
80000250:	00078413          	mv	s0,a5
80000254:	00180593          	addi	a1,a6,1
80000258:	0015c783          	lbu	a5,1(a1)
8000025c:	00158813          	addi	a6,a1,1
80000260:	f8079ce3          	bnez	a5,800001f8 <sprintf+0x5c>
80000264:	00040023          	sb	zero,0(s0)
80000268:	02412083          	lw	ra,36(sp)
8000026c:	02012403          	lw	s0,32(sp)
80000270:	00048513          	mv	a0,s1
80000274:	01c12483          	lw	s1,28(sp)
80000278:	03810113          	addi	sp,sp,56
8000027c:	00008067          	ret
80000280:	00412783          	lw	a5,4(sp)
80000284:	0007a503          	lw	a0,0(a5)
80000288:	00478793          	addi	a5,a5,4
8000028c:	00f12223          	sw	a5,4(sp)
80000290:	06050063          	beqz	a0,800002f0 <sprintf+0x154>
80000294:	00810593          	addi	a1,sp,8
80000298:	01012023          	sw	a6,0(sp)
8000029c:	e79ff0ef          	jal	ra,80000114 <intToStr.part.0>
800002a0:	00814583          	lbu	a1,8(sp)
800002a4:	00012803          	lw	a6,0(sp)
800002a8:	fa0586e3          	beqz	a1,80000254 <sprintf+0xb8>
800002ac:	00914683          	lbu	a3,9(sp)
800002b0:	00a10613          	addi	a2,sp,10
800002b4:	00040793          	mv	a5,s0
800002b8:	0140006f          	j	800002cc <sprintf+0x130>
800002bc:	00064703          	lbu	a4,0(a2)
800002c0:	00068593          	mv	a1,a3
800002c4:	00160613          	addi	a2,a2,1
800002c8:	00070693          	mv	a3,a4
800002cc:	00178793          	addi	a5,a5,1
800002d0:	00978733          	add	a4,a5,s1
800002d4:	feb78fa3          	sb	a1,-1(a5)
800002d8:	40870733          	sub	a4,a4,s0
800002dc:	fe0690e3          	bnez	a3,800002bc <sprintf+0x120>
800002e0:	00070493          	mv	s1,a4
800002e4:	00078413          	mv	s0,a5
800002e8:	00180593          	addi	a1,a6,1
800002ec:	f6dff06f          	j	80000258 <sprintf+0xbc>
800002f0:	03000793          	li	a5,48
800002f4:	00f11423          	sh	a5,8(sp)
800002f8:	00000693          	li	a3,0
800002fc:	03000593          	li	a1,48
80000300:	fb1ff06f          	j	800002b0 <sprintf+0x114>
80000304:	00040023          	sb	zero,0(s0)
80000308:	02412083          	lw	ra,36(sp)
8000030c:	02012403          	lw	s0,32(sp)
80000310:	01c12483          	lw	s1,28(sp)
80000314:	00000513          	li	a0,0
80000318:	03810113          	addi	sp,sp,56
8000031c:	00008067          	ret

80000320 <strcmp>:
80000320:	00054803          	lbu	a6,0(a0)
80000324:	00050893          	mv	a7,a0
80000328:	00000713          	li	a4,0
8000032c:	0005c503          	lbu	a0,0(a1)
80000330:	08080c63          	beqz	a6,800003c8 <strcmp+0xa8>
80000334:	00170713          	addi	a4,a4,1
80000338:	00e887b3          	add	a5,a7,a4
8000033c:	0007c783          	lbu	a5,0(a5)
80000340:	fe079ae3          	bnez	a5,80000334 <strcmp+0x14>
80000344:	06050e63          	beqz	a0,800003c0 <strcmp+0xa0>
80000348:	00000693          	li	a3,0
8000034c:	00068e93          	mv	t4,a3
80000350:	00168693          	addi	a3,a3,1
80000354:	00d587b3          	add	a5,a1,a3
80000358:	0007c783          	lbu	a5,0(a5)
8000035c:	fe0798e3          	bnez	a5,8000034c <strcmp+0x2c>
80000360:	04070863          	beqz	a4,800003b0 <strcmp+0x90>
80000364:	00000613          	li	a2,0
80000368:	0180006f          	j	80000380 <strcmp+0x60>
8000036c:	02f70663          	beq	a4,a5,80000398 <strcmp+0x78>
80000370:	02ce8463          	beq	t4,a2,80000398 <strcmp+0x78>
80000374:	000e4803          	lbu	a6,0(t3)
80000378:	00034503          	lbu	a0,0(t1)
8000037c:	00078613          	mv	a2,a5
80000380:	00160793          	addi	a5,a2,1
80000384:	00f88e33          	add	t3,a7,a5
80000388:	00f58333          	add	t1,a1,a5
8000038c:	fea800e3          	beq	a6,a0,8000036c <strcmp+0x4c>
80000390:	40a80533          	sub	a0,a6,a0
80000394:	00008067          	ret
80000398:	00000513          	li	a0,0
8000039c:	00d71463          	bne	a4,a3,800003a4 <strcmp+0x84>
800003a0:	00008067          	ret
800003a4:	00e6ea63          	bltu	a3,a4,800003b8 <strcmp+0x98>
800003a8:	00f585b3          	add	a1,a1,a5
800003ac:	0005c503          	lbu	a0,0(a1)
800003b0:	40a00533          	neg	a0,a0
800003b4:	00008067          	ret
800003b8:	00f888b3          	add	a7,a7,a5
800003bc:	0008c803          	lbu	a6,0(a7)
800003c0:	00080513          	mv	a0,a6
800003c4:	00008067          	ret
800003c8:	f80510e3          	bnez	a0,80000348 <strcmp+0x28>
800003cc:	00008067          	ret
