
/home/jiunian/Program/ysyx-workbench/am-kernels/tests/cpu-tests/build/matrix-mul-riscv32-nemu.elf:     file format elf32-littleriscv


Disassembly of section .text:

80000000 <_start>:
80000000:	00000413          	li	s0,0
80000004:	00009117          	auipc	sp,0x9
80000008:	ffc10113          	addi	sp,sp,-4 # 80009000 <_end>
8000000c:	104000ef          	jal	ra,80000110 <_trm_init>

80000010 <check>:
80000010:	00050463          	beqz	a0,80000018 <check+0x8>
80000014:	00008067          	ret
80000018:	ffc10113          	addi	sp,sp,-4
8000001c:	00100513          	li	a0,1
80000020:	00112023          	sw	ra,0(sp)
80000024:	0e0000ef          	jal	ra,80000104 <halt>

80000028 <main>:
80000028:	ff010113          	addi	sp,sp,-16
8000002c:	00112623          	sw	ra,12(sp)
80000030:	00812423          	sw	s0,8(sp)
80000034:	00912223          	sw	s1,4(sp)
80000038:	00012023          	sw	zero,0(sp)
8000003c:	00012483          	lw	s1,0(sp)
80000040:	00000517          	auipc	a0,0x0
80000044:	5a450513          	addi	a0,a0,1444 # 800005e4 <c>
80000048:	00012703          	lw	a4,0(sp)
8000004c:	00000797          	auipc	a5,0x0
80000050:	59878793          	addi	a5,a5,1432 # 800005e4 <c>
80000054:	009788b3          	add	a7,a5,s1
80000058:	00000797          	auipc	a5,0x0
8000005c:	0dc78793          	addi	a5,a5,220 # 80000134 <a>
80000060:	00e786b3          	add	a3,a5,a4
80000064:	e7050413          	addi	s0,a0,-400
80000068:	00000613          	li	a2,0
8000006c:	0006a703          	lw	a4,0(a3)
80000070:	00042583          	lw	a1,0(s0)
80000074:	02840413          	addi	s0,s0,40
80000078:	00468693          	addi	a3,a3,4
8000007c:	02b70733          	mul	a4,a4,a1
80000080:	00e60633          	add	a2,a2,a4
80000084:	fea414e3          	bne	s0,a0,8000006c <main+0x44>
80000088:	00000797          	auipc	a5,0x0
8000008c:	23c78793          	addi	a5,a5,572 # 800002c4 <ans>
80000090:	00978733          	add	a4,a5,s1
80000094:	00072503          	lw	a0,0(a4)
80000098:	00c8a023          	sw	a2,0(a7)
8000009c:	00448493          	addi	s1,s1,4
800000a0:	40c50533          	sub	a0,a0,a2
800000a4:	00153513          	seqz	a0,a0
800000a8:	f69ff0ef          	jal	ra,80000010 <check>
800000ac:	00100513          	li	a0,1
800000b0:	f61ff0ef          	jal	ra,80000010 <check>
800000b4:	00440513          	addi	a0,s0,4
800000b8:	00000797          	auipc	a5,0x0
800000bc:	55478793          	addi	a5,a5,1364 # 8000060c <c+0x28>
800000c0:	f8a794e3          	bne	a5,a0,80000048 <main+0x20>
800000c4:	00100513          	li	a0,1
800000c8:	f49ff0ef          	jal	ra,80000010 <check>
800000cc:	00012783          	lw	a5,0(sp)
800000d0:	02878793          	addi	a5,a5,40
800000d4:	00078713          	mv	a4,a5
800000d8:	00f12023          	sw	a5,0(sp)
800000dc:	19000793          	li	a5,400
800000e0:	f4f71ee3          	bne	a4,a5,8000003c <main+0x14>
800000e4:	00100513          	li	a0,1
800000e8:	f29ff0ef          	jal	ra,80000010 <check>
800000ec:	00c12083          	lw	ra,12(sp)
800000f0:	00812403          	lw	s0,8(sp)
800000f4:	00412483          	lw	s1,4(sp)
800000f8:	00000513          	li	a0,0
800000fc:	01010113          	addi	sp,sp,16
80000100:	00008067          	ret

80000104 <halt>:
80000104:	00050513          	mv	a0,a0
80000108:	00100073          	ebreak
8000010c:	0000006f          	j	8000010c <halt+0x8>

80000110 <_trm_init>:
80000110:	ffc10113          	addi	sp,sp,-4
80000114:	00000517          	auipc	a0,0x0
80000118:	01c50513          	addi	a0,a0,28 # 80000130 <_etext>
8000011c:	00112023          	sw	ra,0(sp)
80000120:	f09ff0ef          	jal	ra,80000028 <main>
80000124:	00050513          	mv	a0,a0
80000128:	00100073          	ebreak
8000012c:	0000006f          	j	8000012c <_trm_init+0x1c>
