
/home/jiunian/Program/ysyx-workbench/am-kernels/tests/cpu-tests/build/mersenne-riscv32-nemu.elf:     file format elf32-littleriscv


Disassembly of section .text:

80000000 <_start>:
80000000:	00000413          	li	s0,0
80000004:	00009117          	auipc	sp,0x9
80000008:	ffc10113          	addi	sp,sp,-4 # 80009000 <_end>
8000000c:	114000ef          	jal	ra,80000120 <_trm_init>

80000010 <check>:
80000010:	00050463          	beqz	a0,80000018 <check+0x8>
80000014:	00008067          	ret
80000018:	ffc10113          	addi	sp,sp,-4
8000001c:	00100513          	li	a0,1
80000020:	00112023          	sw	ra,0(sp)
80000024:	0f0000ef          	jal	ra,80000114 <halt>

80000028 <main>:
80000028:	fe810113          	addi	sp,sp,-24
8000002c:	00112a23          	sw	ra,20(sp)
80000030:	00812823          	sw	s0,16(sp)
80000034:	00912623          	sw	s1,12(sp)
80000038:	00b00793          	li	a5,11
8000003c:	3a100693          	li	a3,929
80000040:	00278713          	addi	a4,a5,2
80000044:	0ad78a63          	beq	a5,a3,800000f8 <main+0xd0>
80000048:	02e6e733          	rem	a4,a3,a4
8000004c:	00678793          	addi	a5,a5,6
80000050:	0a070463          	beqz	a4,800000f8 <main+0xd0>
80000054:	02f78733          	mul	a4,a5,a5
80000058:	fee6d4e3          	bge	a3,a4,80000040 <main+0x18>
8000005c:	3a100713          	li	a4,929
80000060:	01600793          	li	a5,22
80000064:	00e12223          	sw	a4,4(sp)
80000068:	00412703          	lw	a4,4(sp)
8000006c:	fff78793          	addi	a5,a5,-1
80000070:	00171713          	slli	a4,a4,0x1
80000074:	00e12223          	sw	a4,4(sp)
80000078:	fe0798e3          	bnez	a5,80000068 <main+0x40>
8000007c:	74300613          	li	a2,1859
80000080:	00000413          	li	s0,0
80000084:	00412483          	lw	s1,4(sp)
80000088:	00c12423          	sw	a2,8(sp)
8000008c:	00100793          	li	a5,1
80000090:	02f795b3          	mulh	a1,a5,a5
80000094:	00040693          	mv	a3,s0
80000098:	00c12023          	sw	a2,0(sp)
8000009c:	02f78533          	mul	a0,a5,a5
800000a0:	420000ef          	jal	ra,800004c0 <__moddi3>
800000a4:	00012603          	lw	a2,0(sp)
800000a8:	00050793          	mv	a5,a0
800000ac:	0004d463          	bgez	s1,800000b4 <main+0x8c>
800000b0:	00151793          	slli	a5,a0,0x1
800000b4:	00149493          	slli	s1,s1,0x1
800000b8:	00f65463          	bge	a2,a5,800000c0 <main+0x98>
800000bc:	40c787b3          	sub	a5,a5,a2
800000c0:	fc0498e3          	bnez	s1,80000090 <main+0x68>
800000c4:	74260593          	addi	a1,a2,1858
800000c8:	00c5b633          	sltu	a2,a1,a2
800000cc:	00100713          	li	a4,1
800000d0:	00860433          	add	s0,a2,s0
800000d4:	00058613          	mv	a2,a1
800000d8:	fae796e3          	bne	a5,a4,80000084 <main+0x5c>
800000dc:	00812703          	lw	a4,8(sp)
800000e0:	ffffd7b7          	lui	a5,0xffffd
800000e4:	d3178793          	addi	a5,a5,-719 # ffffcd31 <_end+0x7fff3d31>
800000e8:	00f70533          	add	a0,a4,a5
800000ec:	00153513          	seqz	a0,a0
800000f0:	f21ff0ef          	jal	ra,80000010 <check>
800000f4:	0080006f          	j	800000fc <main+0xd4>
800000f8:	00100493          	li	s1,1
800000fc:	01412083          	lw	ra,20(sp)
80000100:	01012403          	lw	s0,16(sp)
80000104:	00048513          	mv	a0,s1
80000108:	00c12483          	lw	s1,12(sp)
8000010c:	01810113          	addi	sp,sp,24
80000110:	00008067          	ret

80000114 <halt>:
80000114:	00050513          	mv	a0,a0
80000118:	00100073          	ebreak
8000011c:	0000006f          	j	8000011c <halt+0x8>

80000120 <_trm_init>:
80000120:	ffc10113          	addi	sp,sp,-4
80000124:	00000517          	auipc	a0,0x0
80000128:	53450513          	addi	a0,a0,1332 # 80000658 <_etext>
8000012c:	00112023          	sw	ra,0(sp)
80000130:	ef9ff0ef          	jal	ra,80000028 <main>
80000134:	00050513          	mv	a0,a0
80000138:	00100073          	ebreak
8000013c:	0000006f          	j	8000013c <_trm_init+0x1c>

80000140 <__udivmoddi4>:
80000140:	00050313          	mv	t1,a0
80000144:	02059263          	bnez	a1,80000168 <__udivmoddi4+0x28>
80000148:	1c069c63          	bnez	a3,80000320 <__udivmoddi4+0x1e0>
8000014c:	00070863          	beqz	a4,8000015c <__udivmoddi4+0x1c>
80000150:	02c577b3          	remu	a5,a0,a2
80000154:	00072223          	sw	zero,4(a4)
80000158:	00f72023          	sw	a5,0(a4)
8000015c:	02c35533          	divu	a0,t1,a2
80000160:	00000593          	li	a1,0
80000164:	00008067          	ret
80000168:	fe010113          	addi	sp,sp,-32
8000016c:	00812c23          	sw	s0,24(sp)
80000170:	00112e23          	sw	ra,28(sp)
80000174:	00912a23          	sw	s1,20(sp)
80000178:	00058413          	mv	s0,a1
8000017c:	12061463          	bnez	a2,800002a4 <__udivmoddi4+0x164>
80000180:	20068c63          	beqz	a3,80000398 <__udivmoddi4+0x258>
80000184:	2a050c63          	beqz	a0,8000043c <__udivmoddi4+0x2fc>
80000188:	fff68793          	addi	a5,a3,-1
8000018c:	00d7f533          	and	a0,a5,a3
80000190:	2c050a63          	beqz	a0,80000464 <__udivmoddi4+0x324>
80000194:	00068513          	mv	a0,a3
80000198:	00c12823          	sw	a2,16(sp)
8000019c:	00b12623          	sw	a1,12(sp)
800001a0:	00612423          	sw	t1,8(sp)
800001a4:	00e12223          	sw	a4,4(sp)
800001a8:	00d12023          	sw	a3,0(sp)
800001ac:	3a0000ef          	jal	ra,8000054c <__clzsi2>
800001b0:	00050493          	mv	s1,a0
800001b4:	00040513          	mv	a0,s0
800001b8:	394000ef          	jal	ra,8000054c <__clzsi2>
800001bc:	40a48533          	sub	a0,s1,a0
800001c0:	01e00793          	li	a5,30
800001c4:	00012683          	lw	a3,0(sp)
800001c8:	00412703          	lw	a4,4(sp)
800001cc:	00812303          	lw	t1,8(sp)
800001d0:	00c12583          	lw	a1,12(sp)
800001d4:	01012603          	lw	a2,16(sp)
800001d8:	1ca7e863          	bltu	a5,a0,800003a8 <__udivmoddi4+0x268>
800001dc:	00150593          	addi	a1,a0,1
800001e0:	02000e93          	li	t4,32
800001e4:	40be8eb3          	sub	t4,t4,a1
800001e8:	01d41833          	sll	a6,s0,t4
800001ec:	00b35533          	srl	a0,t1,a1
800001f0:	00b457b3          	srl	a5,s0,a1
800001f4:	01d31eb3          	sll	t4,t1,t4
800001f8:	00a86433          	or	s0,a6,a0
800001fc:	00000493          	li	s1,0
80000200:	00000313          	li	t1,0
80000204:	01fed513          	srli	a0,t4,0x1f
80000208:	00141813          	slli	a6,s0,0x1
8000020c:	00a86833          	or	a6,a6,a0
80000210:	01f45413          	srli	s0,s0,0x1f
80000214:	00179793          	slli	a5,a5,0x1
80000218:	0087e7b3          	or	a5,a5,s0
8000021c:	41060e33          	sub	t3,a2,a6
80000220:	01c63533          	sltu	a0,a2,t3
80000224:	40f688b3          	sub	a7,a3,a5
80000228:	40a888b3          	sub	a7,a7,a0
8000022c:	001e3e13          	seqz	t3,t3
80000230:	41c888b3          	sub	a7,a7,t3
80000234:	41f8de13          	srai	t3,a7,0x1f
80000238:	00ce7433          	and	s0,t3,a2
8000023c:	40880433          	sub	s0,a6,s0
80000240:	00de7e33          	and	t3,t3,a3
80000244:	01f4d513          	srli	a0,s1,0x1f
80000248:	001e9e93          	slli	t4,t4,0x1
8000024c:	00149493          	slli	s1,s1,0x1
80000250:	00883833          	sltu	a6,a6,s0
80000254:	41c787b3          	sub	a5,a5,t3
80000258:	fff58593          	addi	a1,a1,-1
8000025c:	0064e4b3          	or	s1,s1,t1
80000260:	00aeeeb3          	or	t4,t4,a0
80000264:	01f8d313          	srli	t1,a7,0x1f
80000268:	410787b3          	sub	a5,a5,a6
8000026c:	f8059ce3          	bnez	a1,80000204 <__udivmoddi4+0xc4>
80000270:	01f4d593          	srli	a1,s1,0x1f
80000274:	001e9e93          	slli	t4,t4,0x1
80000278:	00149493          	slli	s1,s1,0x1
8000027c:	0064e533          	or	a0,s1,t1
80000280:	01d5e5b3          	or	a1,a1,t4
80000284:	00070663          	beqz	a4,80000290 <__udivmoddi4+0x150>
80000288:	00872023          	sw	s0,0(a4)
8000028c:	00f72223          	sw	a5,4(a4)
80000290:	01c12083          	lw	ra,28(sp)
80000294:	01812403          	lw	s0,24(sp)
80000298:	01412483          	lw	s1,20(sp)
8000029c:	02010113          	addi	sp,sp,32
800002a0:	00008067          	ret
800002a4:	08068a63          	beqz	a3,80000338 <__udivmoddi4+0x1f8>
800002a8:	00a12223          	sw	a0,4(sp)
800002ac:	00068513          	mv	a0,a3
800002b0:	00b12423          	sw	a1,8(sp)
800002b4:	00e12023          	sw	a4,0(sp)
800002b8:	00c12823          	sw	a2,16(sp)
800002bc:	00d12623          	sw	a3,12(sp)
800002c0:	28c000ef          	jal	ra,8000054c <__clzsi2>
800002c4:	00050493          	mv	s1,a0
800002c8:	00040513          	mv	a0,s0
800002cc:	280000ef          	jal	ra,8000054c <__clzsi2>
800002d0:	40a48533          	sub	a0,s1,a0
800002d4:	01f00793          	li	a5,31
800002d8:	00012703          	lw	a4,0(sp)
800002dc:	00412303          	lw	t1,4(sp)
800002e0:	00812583          	lw	a1,8(sp)
800002e4:	0ca7e263          	bltu	a5,a0,800003a8 <__udivmoddi4+0x268>
800002e8:	00150593          	addi	a1,a0,1
800002ec:	02000793          	li	a5,32
800002f0:	00c12683          	lw	a3,12(sp)
800002f4:	01012603          	lw	a2,16(sp)
800002f8:	00030e93          	mv	t4,t1
800002fc:	18f58a63          	beq	a1,a5,80000490 <__udivmoddi4+0x350>
80000300:	40b78533          	sub	a0,a5,a1
80000304:	00b35833          	srl	a6,t1,a1
80000308:	00a418b3          	sll	a7,s0,a0
8000030c:	00b457b3          	srl	a5,s0,a1
80000310:	00a31eb3          	sll	t4,t1,a0
80000314:	0108e433          	or	s0,a7,a6
80000318:	00000493          	li	s1,0
8000031c:	ee5ff06f          	j	80000200 <__udivmoddi4+0xc0>
80000320:	06070e63          	beqz	a4,8000039c <__udivmoddi4+0x25c>
80000324:	00a72023          	sw	a0,0(a4)
80000328:	00072223          	sw	zero,4(a4)
8000032c:	00000513          	li	a0,0
80000330:	00000593          	li	a1,0
80000334:	00008067          	ret
80000338:	fff60793          	addi	a5,a2,-1
8000033c:	00c7f533          	and	a0,a5,a2
80000340:	08051063          	bnez	a0,800003c0 <__udivmoddi4+0x280>
80000344:	00070863          	beqz	a4,80000354 <__udivmoddi4+0x214>
80000348:	0067f7b3          	and	a5,a5,t1
8000034c:	00f72023          	sw	a5,0(a4)
80000350:	00072223          	sw	zero,4(a4)
80000354:	00100793          	li	a5,1
80000358:	00030513          	mv	a0,t1
8000035c:	f2f60ae3          	beq	a2,a5,80000290 <__udivmoddi4+0x150>
80000360:	00060513          	mv	a0,a2
80000364:	00b12223          	sw	a1,4(sp)
80000368:	00612023          	sw	t1,0(sp)
8000036c:	278000ef          	jal	ra,800005e4 <__ctzsi2>
80000370:	00412583          	lw	a1,4(sp)
80000374:	00012303          	lw	t1,0(sp)
80000378:	02000713          	li	a4,32
8000037c:	40a70733          	sub	a4,a4,a0
80000380:	00050793          	mv	a5,a0
80000384:	00e59733          	sll	a4,a1,a4
80000388:	00a35333          	srl	t1,t1,a0
8000038c:	00676533          	or	a0,a4,t1
80000390:	00f5d5b3          	srl	a1,a1,a5
80000394:	efdff06f          	j	80000290 <__udivmoddi4+0x150>
80000398:	00100073          	ebreak
8000039c:	00000513          	li	a0,0
800003a0:	00000593          	li	a1,0
800003a4:	00008067          	ret
800003a8:	0a070863          	beqz	a4,80000458 <__udivmoddi4+0x318>
800003ac:	00b72223          	sw	a1,4(a4)
800003b0:	00672023          	sw	t1,0(a4)
800003b4:	00000513          	li	a0,0
800003b8:	00000593          	li	a1,0
800003bc:	ed5ff06f          	j	80000290 <__udivmoddi4+0x150>
800003c0:	00060513          	mv	a0,a2
800003c4:	00068493          	mv	s1,a3
800003c8:	00d12823          	sw	a3,16(sp)
800003cc:	00612623          	sw	t1,12(sp)
800003d0:	00e12423          	sw	a4,8(sp)
800003d4:	00c12223          	sw	a2,4(sp)
800003d8:	174000ef          	jal	ra,8000054c <__clzsi2>
800003dc:	00050793          	mv	a5,a0
800003e0:	00040513          	mv	a0,s0
800003e4:	00f12023          	sw	a5,0(sp)
800003e8:	164000ef          	jal	ra,8000054c <__clzsi2>
800003ec:	00012783          	lw	a5,0(sp)
800003f0:	00c12303          	lw	t1,12(sp)
800003f4:	02000813          	li	a6,32
800003f8:	40a78533          	sub	a0,a5,a0
800003fc:	02150593          	addi	a1,a0,33
80000400:	00412603          	lw	a2,4(sp)
80000404:	00812703          	lw	a4,8(sp)
80000408:	01012683          	lw	a3,16(sp)
8000040c:	00030e93          	mv	t4,t1
80000410:	00000793          	li	a5,0
80000414:	df0586e3          	beq	a1,a6,80000200 <__udivmoddi4+0xc0>
80000418:	01f00893          	li	a7,31
8000041c:	08b8e063          	bltu	a7,a1,8000049c <__udivmoddi4+0x35c>
80000420:	40b80833          	sub	a6,a6,a1
80000424:	00b35533          	srl	a0,t1,a1
80000428:	010418b3          	sll	a7,s0,a6
8000042c:	00b457b3          	srl	a5,s0,a1
80000430:	01031eb3          	sll	t4,t1,a6
80000434:	00a8e433          	or	s0,a7,a0
80000438:	dc9ff06f          	j	80000200 <__udivmoddi4+0xc0>
8000043c:	00070863          	beqz	a4,8000044c <__udivmoddi4+0x30c>
80000440:	02d5f7b3          	remu	a5,a1,a3
80000444:	00072023          	sw	zero,0(a4)
80000448:	00f72223          	sw	a5,4(a4)
8000044c:	02d5d533          	divu	a0,a1,a3
80000450:	00000593          	li	a1,0
80000454:	e3dff06f          	j	80000290 <__udivmoddi4+0x150>
80000458:	00000513          	li	a0,0
8000045c:	00000593          	li	a1,0
80000460:	e31ff06f          	j	80000290 <__udivmoddi4+0x150>
80000464:	00070863          	beqz	a4,80000474 <__udivmoddi4+0x334>
80000468:	00b7f7b3          	and	a5,a5,a1
8000046c:	00672023          	sw	t1,0(a4)
80000470:	00f72223          	sw	a5,4(a4)
80000474:	00068513          	mv	a0,a3
80000478:	00b12023          	sw	a1,0(sp)
8000047c:	168000ef          	jal	ra,800005e4 <__ctzsi2>
80000480:	00012583          	lw	a1,0(sp)
80000484:	00a5d533          	srl	a0,a1,a0
80000488:	00000593          	li	a1,0
8000048c:	e05ff06f          	j	80000290 <__udivmoddi4+0x150>
80000490:	00000793          	li	a5,0
80000494:	00000493          	li	s1,0
80000498:	d69ff06f          	j	80000200 <__udivmoddi4+0xc0>
8000049c:	04000813          	li	a6,64
800004a0:	40b80833          	sub	a6,a6,a1
800004a4:	00150513          	addi	a0,a0,1
800004a8:	010314b3          	sll	s1,t1,a6
800004ac:	00a35eb3          	srl	t4,t1,a0
800004b0:	01041833          	sll	a6,s0,a6
800004b4:	01d86eb3          	or	t4,a6,t4
800004b8:	00a45433          	srl	s0,s0,a0
800004bc:	d45ff06f          	j	80000200 <__udivmoddi4+0xc0>

800004c0 <__moddi3>:
800004c0:	fe810113          	addi	sp,sp,-24
800004c4:	00812823          	sw	s0,16(sp)
800004c8:	41f6d713          	srai	a4,a3,0x1f
800004cc:	41f5d413          	srai	s0,a1,0x1f
800004d0:	00e64833          	xor	a6,a2,a4
800004d4:	008547b3          	xor	a5,a0,s0
800004d8:	00912623          	sw	s1,12(sp)
800004dc:	40e80633          	sub	a2,a6,a4
800004e0:	40878533          	sub	a0,a5,s0
800004e4:	00e6c6b3          	xor	a3,a3,a4
800004e8:	0085c5b3          	xor	a1,a1,s0
800004ec:	00710493          	addi	s1,sp,7
800004f0:	ff84f493          	andi	s1,s1,-8
800004f4:	00a7b7b3          	sltu	a5,a5,a0
800004f8:	00c83833          	sltu	a6,a6,a2
800004fc:	40e686b3          	sub	a3,a3,a4
80000500:	408585b3          	sub	a1,a1,s0
80000504:	00048713          	mv	a4,s1
80000508:	40f585b3          	sub	a1,a1,a5
8000050c:	410686b3          	sub	a3,a3,a6
80000510:	00112a23          	sw	ra,20(sp)
80000514:	c2dff0ef          	jal	ra,80000140 <__udivmoddi4>
80000518:	0004a783          	lw	a5,0(s1)
8000051c:	0044a583          	lw	a1,4(s1)
80000520:	01412083          	lw	ra,20(sp)
80000524:	0087c7b3          	xor	a5,a5,s0
80000528:	0085c5b3          	xor	a1,a1,s0
8000052c:	40878533          	sub	a0,a5,s0
80000530:	408585b3          	sub	a1,a1,s0
80000534:	01012403          	lw	s0,16(sp)
80000538:	00a7b7b3          	sltu	a5,a5,a0
8000053c:	00c12483          	lw	s1,12(sp)
80000540:	40f585b3          	sub	a1,a1,a5
80000544:	01810113          	addi	sp,sp,24
80000548:	00008067          	ret

8000054c <__clzsi2>:
8000054c:	ffff05b7          	lui	a1,0xffff0
80000550:	00b575b3          	and	a1,a0,a1
80000554:	0015b593          	seqz	a1,a1
80000558:	00459593          	slli	a1,a1,0x4
8000055c:	01000793          	li	a5,16
80000560:	40b787b3          	sub	a5,a5,a1
80000564:	00010737          	lui	a4,0x10
80000568:	00f557b3          	srl	a5,a0,a5
8000056c:	f0070713          	addi	a4,a4,-256 # ff00 <_entry_offset+0xff00>
80000570:	00e7f733          	and	a4,a5,a4
80000574:	00173713          	seqz	a4,a4
80000578:	00371713          	slli	a4,a4,0x3
8000057c:	00800693          	li	a3,8
80000580:	40e686b3          	sub	a3,a3,a4
80000584:	00d7d7b3          	srl	a5,a5,a3
80000588:	0f07f613          	andi	a2,a5,240
8000058c:	00163613          	seqz	a2,a2
80000590:	00261613          	slli	a2,a2,0x2
80000594:	00400693          	li	a3,4
80000598:	40c686b3          	sub	a3,a3,a2
8000059c:	00d7d7b3          	srl	a5,a5,a3
800005a0:	00c7f693          	andi	a3,a5,12
800005a4:	0016b693          	seqz	a3,a3
800005a8:	00169693          	slli	a3,a3,0x1
800005ac:	00200813          	li	a6,2
800005b0:	40d80533          	sub	a0,a6,a3
800005b4:	00a7d7b3          	srl	a5,a5,a0
800005b8:	0017d513          	srli	a0,a5,0x1
800005bc:	00154513          	xori	a0,a0,1
800005c0:	00b70733          	add	a4,a4,a1
800005c4:	00157513          	andi	a0,a0,1
800005c8:	00e60633          	add	a2,a2,a4
800005cc:	40f80833          	sub	a6,a6,a5
800005d0:	40a00733          	neg	a4,a0
800005d4:	01077733          	and	a4,a4,a6
800005d8:	00c68533          	add	a0,a3,a2
800005dc:	00a70533          	add	a0,a4,a0
800005e0:	00008067          	ret

800005e4 <__ctzsi2>:
800005e4:	01051593          	slli	a1,a0,0x10
800005e8:	0105d593          	srli	a1,a1,0x10
800005ec:	0015b593          	seqz	a1,a1
800005f0:	00459593          	slli	a1,a1,0x4
800005f4:	00b557b3          	srl	a5,a0,a1
800005f8:	0ff7f613          	zext.b	a2,a5
800005fc:	00163613          	seqz	a2,a2
80000600:	00361613          	slli	a2,a2,0x3
80000604:	00c7d7b3          	srl	a5,a5,a2
80000608:	00f7f693          	andi	a3,a5,15
8000060c:	0016b693          	seqz	a3,a3
80000610:	00269693          	slli	a3,a3,0x2
80000614:	00d7d7b3          	srl	a5,a5,a3
80000618:	0037f713          	andi	a4,a5,3
8000061c:	00173713          	seqz	a4,a4
80000620:	00171713          	slli	a4,a4,0x1
80000624:	00e7d7b3          	srl	a5,a5,a4
80000628:	0017d513          	srli	a0,a5,0x1
8000062c:	00b60633          	add	a2,a2,a1
80000630:	0017f793          	andi	a5,a5,1
80000634:	00157593          	andi	a1,a0,1
80000638:	00200513          	li	a0,2
8000063c:	00c686b3          	add	a3,a3,a2
80000640:	40b50533          	sub	a0,a0,a1
80000644:	fff78793          	addi	a5,a5,-1
80000648:	00f57533          	and	a0,a0,a5
8000064c:	00d70733          	add	a4,a4,a3
80000650:	00e50533          	add	a0,a0,a4
80000654:	00008067          	ret
