
/home/jiunian/Program/ysyx-workbench/am-kernels/tests/cpu-tests/build/mul-longlong-riscv32-nemu.elf:     file format elf32-littleriscv


Disassembly of section .text:

80000000 <_start>:
80000000:	00000413          	li	s0,0
80000004:	00009117          	auipc	sp,0x9
80000008:	ffc10113          	addi	sp,sp,-4 # 80009000 <_end>
8000000c:	138000ef          	jal	ra,80000144 <_trm_init>

80000010 <check>:
80000010:	00050463          	beqz	a0,80000018 <check+0x8>
80000014:	00008067          	ret
80000018:	ffc10113          	addi	sp,sp,-4
8000001c:	00100513          	li	a0,1
80000020:	00112023          	sw	ra,0(sp)
80000024:	114000ef          	jal	ra,80000138 <halt>

80000028 <main>:
80000028:	fe010113          	addi	sp,sp,-32
8000002c:	00000797          	auipc	a5,0x0
80000030:	18c78793          	addi	a5,a5,396 # 800001b8 <test_data>
80000034:	00012423          	sw	zero,8(sp)
80000038:	00f12823          	sw	a5,16(sp)
8000003c:	00812783          	lw	a5,8(sp)
80000040:	00112e23          	sw	ra,28(sp)
80000044:	00812c23          	sw	s0,24(sp)
80000048:	00912a23          	sw	s1,20(sp)
8000004c:	00012623          	sw	zero,12(sp)
80000050:	00400713          	li	a4,4
80000054:	0ae78c63          	beq	a5,a4,8000010c <main+0xe4>
80000058:	01012403          	lw	s0,16(sp)
8000005c:	00c12783          	lw	a5,12(sp)
80000060:	00042483          	lw	s1,0(s0)
80000064:	00379713          	slli	a4,a5,0x3
80000068:	00000797          	auipc	a5,0x0
8000006c:	10078793          	addi	a5,a5,256 # 80000168 <ans>
80000070:	00e78733          	add	a4,a5,a4
80000074:	00048793          	mv	a5,s1
80000078:	02f48833          	mul	a6,s1,a5
8000007c:	00072503          	lw	a0,0(a4)
80000080:	00472603          	lw	a2,4(a4)
80000084:	00870713          	addi	a4,a4,8
80000088:	00e12023          	sw	a4,0(sp)
8000008c:	00e12223          	sw	a4,4(sp)
80000090:	00440413          	addi	s0,s0,4
80000094:	02f497b3          	mulh	a5,s1,a5
80000098:	01054533          	xor	a0,a0,a6
8000009c:	00f647b3          	xor	a5,a2,a5
800000a0:	00f56533          	or	a0,a0,a5
800000a4:	00153513          	seqz	a0,a0
800000a8:	f69ff0ef          	jal	ra,80000010 <check>
800000ac:	00000797          	auipc	a5,0x0
800000b0:	11c78793          	addi	a5,a5,284 # 800001c8 <_bss_start>
800000b4:	00878863          	beq	a5,s0,800000c4 <main+0x9c>
800000b8:	00042783          	lw	a5,0(s0)
800000bc:	00012703          	lw	a4,0(sp)
800000c0:	fb9ff06f          	j	80000078 <main+0x50>
800000c4:	00c12783          	lw	a5,12(sp)
800000c8:	00812403          	lw	s0,8(sp)
800000cc:	00100513          	li	a0,1
800000d0:	00478793          	addi	a5,a5,4
800000d4:	408787b3          	sub	a5,a5,s0
800000d8:	00f12623          	sw	a5,12(sp)
800000dc:	f35ff0ef          	jal	ra,80000010 <check>
800000e0:	00300793          	li	a5,3
800000e4:	02f40a63          	beq	s0,a5,80000118 <main+0xf0>
800000e8:	00812783          	lw	a5,8(sp)
800000ec:	00400713          	li	a4,4
800000f0:	00178793          	addi	a5,a5,1
800000f4:	00f12423          	sw	a5,8(sp)
800000f8:	01012783          	lw	a5,16(sp)
800000fc:	00478793          	addi	a5,a5,4
80000100:	00f12823          	sw	a5,16(sp)
80000104:	00812783          	lw	a5,8(sp)
80000108:	f4e798e3          	bne	a5,a4,80000058 <main+0x30>
8000010c:	00100513          	li	a0,1
80000110:	f01ff0ef          	jal	ra,80000010 <check>
80000114:	fd5ff06f          	j	800000e8 <main+0xc0>
80000118:	00100513          	li	a0,1
8000011c:	ef5ff0ef          	jal	ra,80000010 <check>
80000120:	01c12083          	lw	ra,28(sp)
80000124:	01812403          	lw	s0,24(sp)
80000128:	01412483          	lw	s1,20(sp)
8000012c:	00000513          	li	a0,0
80000130:	02010113          	addi	sp,sp,32
80000134:	00008067          	ret

80000138 <halt>:
80000138:	00050513          	mv	a0,a0
8000013c:	00100073          	ebreak
80000140:	0000006f          	j	80000140 <halt+0x8>

80000144 <_trm_init>:
80000144:	ffc10113          	addi	sp,sp,-4
80000148:	00000517          	auipc	a0,0x0
8000014c:	01c50513          	addi	a0,a0,28 # 80000164 <_etext>
80000150:	00112023          	sw	ra,0(sp)
80000154:	ed5ff0ef          	jal	ra,80000028 <main>
80000158:	00050513          	mv	a0,a0
8000015c:	00100073          	ebreak
80000160:	0000006f          	j	80000160 <_trm_init+0x1c>
