
/home/jiunian/Program/ysyx-workbench/am-kernels/tests/cpu-tests/build/select-sort-riscv32-nemu.elf:     file format elf32-littleriscv


Disassembly of section .text:

80000000 <_start>:
80000000:	00000413          	li	s0,0
80000004:	00009117          	auipc	sp,0x9
80000008:	ffc10113          	addi	sp,sp,-4 # 80009000 <_end>
8000000c:	130000ef          	jal	ra,8000013c <_trm_init>

80000010 <check>:
80000010:	00050463          	beqz	a0,80000018 <check+0x8>
80000014:	00008067          	ret
80000018:	ffc10113          	addi	sp,sp,-4
8000001c:	00100513          	li	a0,1
80000020:	00112023          	sw	ra,0(sp)
80000024:	10c000ef          	jal	ra,80000130 <halt>

80000028 <select_sort>:
80000028:	00000897          	auipc	a7,0x0
8000002c:	13c88893          	addi	a7,a7,316 # 80000164 <a+0x4>
80000030:	00000813          	li	a6,0
80000034:	00000e97          	auipc	t4,0x0
80000038:	12ce8e93          	addi	t4,t4,300 # 80000160 <a>
8000003c:	01400513          	li	a0,20
80000040:	01300e13          	li	t3,19
80000044:	ffc8a303          	lw	t1,-4(a7)
80000048:	00080593          	mv	a1,a6
8000004c:	00180813          	addi	a6,a6,1
80000050:	00088713          	mv	a4,a7
80000054:	00030613          	mv	a2,t1
80000058:	00080793          	mv	a5,a6
8000005c:	00072683          	lw	a3,0(a4)
80000060:	00470713          	addi	a4,a4,4
80000064:	00c6d663          	bge	a3,a2,80000070 <select_sort+0x48>
80000068:	00078593          	mv	a1,a5
8000006c:	00068613          	mv	a2,a3
80000070:	00178793          	addi	a5,a5,1
80000074:	fea794e3          	bne	a5,a0,8000005c <select_sort+0x34>
80000078:	00259593          	slli	a1,a1,0x2
8000007c:	fec8ae23          	sw	a2,-4(a7)
80000080:	00be85b3          	add	a1,t4,a1
80000084:	0065a023          	sw	t1,0(a1)
80000088:	00488893          	addi	a7,a7,4
8000008c:	fbc81ce3          	bne	a6,t3,80000044 <select_sort+0x1c>
80000090:	00008067          	ret

80000094 <main>:
80000094:	ff010113          	addi	sp,sp,-16
80000098:	00812423          	sw	s0,8(sp)
8000009c:	00912223          	sw	s1,4(sp)
800000a0:	00112623          	sw	ra,12(sp)
800000a4:	00000417          	auipc	s0,0x0
800000a8:	0bc40413          	addi	s0,s0,188 # 80000160 <a>
800000ac:	f7dff0ef          	jal	ra,80000028 <select_sort>
800000b0:	00040713          	mv	a4,s0
800000b4:	00000493          	li	s1,0
800000b8:	00072503          	lw	a0,0(a4)
800000bc:	00470713          	addi	a4,a4,4
800000c0:	00e12023          	sw	a4,0(sp)
800000c4:	40950533          	sub	a0,a0,s1
800000c8:	00153513          	seqz	a0,a0
800000cc:	f45ff0ef          	jal	ra,80000010 <check>
800000d0:	00148493          	addi	s1,s1,1
800000d4:	01400793          	li	a5,20
800000d8:	00012703          	lw	a4,0(sp)
800000dc:	fcf49ee3          	bne	s1,a5,800000b8 <main+0x24>
800000e0:	00100513          	li	a0,1
800000e4:	f2dff0ef          	jal	ra,80000010 <check>
800000e8:	00000493          	li	s1,0
800000ec:	f3dff0ef          	jal	ra,80000028 <select_sort>
800000f0:	00042503          	lw	a0,0(s0)
800000f4:	00440413          	addi	s0,s0,4
800000f8:	40950533          	sub	a0,a0,s1
800000fc:	00153513          	seqz	a0,a0
80000100:	f11ff0ef          	jal	ra,80000010 <check>
80000104:	00148493          	addi	s1,s1,1
80000108:	01400793          	li	a5,20
8000010c:	fef492e3          	bne	s1,a5,800000f0 <main+0x5c>
80000110:	00100513          	li	a0,1
80000114:	efdff0ef          	jal	ra,80000010 <check>
80000118:	00c12083          	lw	ra,12(sp)
8000011c:	00812403          	lw	s0,8(sp)
80000120:	00412483          	lw	s1,4(sp)
80000124:	00000513          	li	a0,0
80000128:	01010113          	addi	sp,sp,16
8000012c:	00008067          	ret

80000130 <halt>:
80000130:	00050513          	mv	a0,a0
80000134:	00100073          	ebreak
80000138:	0000006f          	j	80000138 <halt+0x8>

8000013c <_trm_init>:
8000013c:	ffc10113          	addi	sp,sp,-4
80000140:	00000517          	auipc	a0,0x0
80000144:	01c50513          	addi	a0,a0,28 # 8000015c <_etext>
80000148:	00112023          	sw	ra,0(sp)
8000014c:	f49ff0ef          	jal	ra,80000094 <main>
80000150:	00050513          	mv	a0,a0
80000154:	00100073          	ebreak
80000158:	0000006f          	j	80000158 <_trm_init+0x1c>
