
/home/jiunian/Program/ysyx-workbench/am-kernels/tests/cpu-tests/build/string-riscv32-nemu.elf:     file format elf32-littleriscv


Disassembly of section .text:

80000000 <_start>:
80000000:	00000413          	li	s0,0
80000004:	00009117          	auipc	sp,0x9
80000008:	ffc10113          	addi	sp,sp,-4 # 80009000 <_end>
8000000c:	128000ef          	jal	ra,80000134 <_trm_init>

80000010 <check>:
80000010:	00050463          	beqz	a0,80000018 <check+0x8>
80000014:	00008067          	ret
80000018:	ffc10113          	addi	sp,sp,-4
8000001c:	00100513          	li	a0,1
80000020:	00112023          	sw	ra,0(sp)
80000024:	104000ef          	jal	ra,80000128 <halt>

80000028 <main>:
80000028:	ff410113          	addi	sp,sp,-12
8000002c:	00812223          	sw	s0,4(sp)
80000030:	00000417          	auipc	s0,0x0
80000034:	34c40413          	addi	s0,s0,844 # 8000037c <s>
80000038:	00842583          	lw	a1,8(s0)
8000003c:	00042503          	lw	a0,0(s0)
80000040:	00112423          	sw	ra,8(sp)
80000044:	00912023          	sw	s1,0(sp)
80000048:	1b0000ef          	jal	ra,800001f8 <strcmp>
8000004c:	00153513          	seqz	a0,a0
80000050:	fc1ff0ef          	jal	ra,80000010 <check>
80000054:	00442583          	lw	a1,4(s0)
80000058:	00042503          	lw	a0,0(s0)
8000005c:	00000497          	auipc	s1,0x0
80000060:	34048493          	addi	s1,s1,832 # 8000039c <str>
80000064:	194000ef          	jal	ra,800001f8 <strcmp>
80000068:	01f55513          	srli	a0,a0,0x1f
8000006c:	fa5ff0ef          	jal	ra,80000010 <check>
80000070:	00442583          	lw	a1,4(s0)
80000074:	00042503          	lw	a0,0(s0)
80000078:	00158593          	addi	a1,a1,1
8000007c:	00150513          	addi	a0,a0,1
80000080:	178000ef          	jal	ra,800001f8 <strcmp>
80000084:	01f55513          	srli	a0,a0,0x1f
80000088:	f89ff0ef          	jal	ra,80000010 <check>
8000008c:	00442583          	lw	a1,4(s0)
80000090:	00042503          	lw	a0,0(s0)
80000094:	00258593          	addi	a1,a1,2
80000098:	00250513          	addi	a0,a0,2
8000009c:	15c000ef          	jal	ra,800001f8 <strcmp>
800000a0:	01f55513          	srli	a0,a0,0x1f
800000a4:	f6dff0ef          	jal	ra,80000010 <check>
800000a8:	00442583          	lw	a1,4(s0)
800000ac:	00042503          	lw	a0,0(s0)
800000b0:	00358593          	addi	a1,a1,3
800000b4:	00350513          	addi	a0,a0,3
800000b8:	140000ef          	jal	ra,800001f8 <strcmp>
800000bc:	01f55513          	srli	a0,a0,0x1f
800000c0:	f51ff0ef          	jal	ra,80000010 <check>
800000c4:	00000597          	auipc	a1,0x0
800000c8:	2d058593          	addi	a1,a1,720 # 80000394 <str1>
800000cc:	00048513          	mv	a0,s1
800000d0:	084000ef          	jal	ra,80000154 <strcpy>
800000d4:	00c42583          	lw	a1,12(s0)
800000d8:	0b8000ef          	jal	ra,80000190 <strcat>
800000dc:	01042583          	lw	a1,16(s0)
800000e0:	118000ef          	jal	ra,800001f8 <strcmp>
800000e4:	00153513          	seqz	a0,a0
800000e8:	f29ff0ef          	jal	ra,80000010 <check>
800000ec:	00500613          	li	a2,5
800000f0:	02300593          	li	a1,35
800000f4:	00048513          	mv	a0,s1
800000f8:	1b0000ef          	jal	ra,800002a8 <memset>
800000fc:	01442583          	lw	a1,20(s0)
80000100:	00500613          	li	a2,5
80000104:	1c4000ef          	jal	ra,800002c8 <memcmp>
80000108:	00153513          	seqz	a0,a0
8000010c:	f05ff0ef          	jal	ra,80000010 <check>
80000110:	00812083          	lw	ra,8(sp)
80000114:	00412403          	lw	s0,4(sp)
80000118:	00012483          	lw	s1,0(sp)
8000011c:	00000513          	li	a0,0
80000120:	00c10113          	addi	sp,sp,12
80000124:	00008067          	ret

80000128 <halt>:
80000128:	00050513          	mv	a0,a0
8000012c:	00100073          	ebreak
80000130:	0000006f          	j	80000130 <halt+0x8>

80000134 <_trm_init>:
80000134:	ffc10113          	addi	sp,sp,-4
80000138:	00000517          	auipc	a0,0x0
8000013c:	24050513          	addi	a0,a0,576 # 80000378 <mainargs>
80000140:	00112023          	sw	ra,0(sp)
80000144:	ee5ff0ef          	jal	ra,80000028 <main>
80000148:	00050513          	mv	a0,a0
8000014c:	00100073          	ebreak
80000150:	0000006f          	j	80000150 <_trm_init+0x1c>

80000154 <strcpy>:
80000154:	0005c703          	lbu	a4,0(a1)
80000158:	02070663          	beqz	a4,80000184 <strcpy+0x30>
8000015c:	00000793          	li	a5,0
80000160:	00f506b3          	add	a3,a0,a5
80000164:	00178793          	addi	a5,a5,1
80000168:	00e68023          	sb	a4,0(a3)
8000016c:	00f58733          	add	a4,a1,a5
80000170:	00074703          	lbu	a4,0(a4)
80000174:	fe0716e3          	bnez	a4,80000160 <strcpy+0xc>
80000178:	00f507b3          	add	a5,a0,a5
8000017c:	00078023          	sb	zero,0(a5)
80000180:	00008067          	ret
80000184:	00050793          	mv	a5,a0
80000188:	00078023          	sb	zero,0(a5)
8000018c:	00008067          	ret

80000190 <strcat>:
80000190:	00054783          	lbu	a5,0(a0)
80000194:	04078c63          	beqz	a5,800001ec <strcat+0x5c>
80000198:	00150713          	addi	a4,a0,1
8000019c:	00000613          	li	a2,0
800001a0:	00074683          	lbu	a3,0(a4)
800001a4:	00070793          	mv	a5,a4
800001a8:	00160613          	addi	a2,a2,1
800001ac:	00170713          	addi	a4,a4,1
800001b0:	fe0698e3          	bnez	a3,800001a0 <strcat+0x10>
800001b4:	0005c683          	lbu	a3,0(a1)
800001b8:	02068663          	beqz	a3,800001e4 <strcat+0x54>
800001bc:	00000793          	li	a5,0
800001c0:	00c78733          	add	a4,a5,a2
800001c4:	00e50733          	add	a4,a0,a4
800001c8:	00178793          	addi	a5,a5,1
800001cc:	00d70023          	sb	a3,0(a4)
800001d0:	00f58733          	add	a4,a1,a5
800001d4:	00074683          	lbu	a3,0(a4)
800001d8:	fe0694e3          	bnez	a3,800001c0 <strcat+0x30>
800001dc:	00c787b3          	add	a5,a5,a2
800001e0:	00f507b3          	add	a5,a0,a5
800001e4:	00078023          	sb	zero,0(a5)
800001e8:	00008067          	ret
800001ec:	00050793          	mv	a5,a0
800001f0:	00000613          	li	a2,0
800001f4:	fc1ff06f          	j	800001b4 <strcat+0x24>

800001f8 <strcmp>:
800001f8:	00054803          	lbu	a6,0(a0)
800001fc:	00050893          	mv	a7,a0
80000200:	00000713          	li	a4,0
80000204:	0005c503          	lbu	a0,0(a1)
80000208:	08080c63          	beqz	a6,800002a0 <strcmp+0xa8>
8000020c:	00170713          	addi	a4,a4,1
80000210:	00e887b3          	add	a5,a7,a4
80000214:	0007c783          	lbu	a5,0(a5)
80000218:	fe079ae3          	bnez	a5,8000020c <strcmp+0x14>
8000021c:	06050e63          	beqz	a0,80000298 <strcmp+0xa0>
80000220:	00000693          	li	a3,0
80000224:	00068e93          	mv	t4,a3
80000228:	00168693          	addi	a3,a3,1
8000022c:	00d587b3          	add	a5,a1,a3
80000230:	0007c783          	lbu	a5,0(a5)
80000234:	fe0798e3          	bnez	a5,80000224 <strcmp+0x2c>
80000238:	04070863          	beqz	a4,80000288 <strcmp+0x90>
8000023c:	00000613          	li	a2,0
80000240:	0180006f          	j	80000258 <strcmp+0x60>
80000244:	02f70663          	beq	a4,a5,80000270 <strcmp+0x78>
80000248:	02ce8463          	beq	t4,a2,80000270 <strcmp+0x78>
8000024c:	000e4803          	lbu	a6,0(t3)
80000250:	00034503          	lbu	a0,0(t1)
80000254:	00078613          	mv	a2,a5
80000258:	00160793          	addi	a5,a2,1
8000025c:	00f88e33          	add	t3,a7,a5
80000260:	00f58333          	add	t1,a1,a5
80000264:	fea800e3          	beq	a6,a0,80000244 <strcmp+0x4c>
80000268:	40a80533          	sub	a0,a6,a0
8000026c:	00008067          	ret
80000270:	00000513          	li	a0,0
80000274:	00d71463          	bne	a4,a3,8000027c <strcmp+0x84>
80000278:	00008067          	ret
8000027c:	00e6ea63          	bltu	a3,a4,80000290 <strcmp+0x98>
80000280:	00f585b3          	add	a1,a1,a5
80000284:	0005c503          	lbu	a0,0(a1)
80000288:	40a00533          	neg	a0,a0
8000028c:	00008067          	ret
80000290:	00f888b3          	add	a7,a7,a5
80000294:	0008c803          	lbu	a6,0(a7)
80000298:	00080513          	mv	a0,a6
8000029c:	00008067          	ret
800002a0:	f80510e3          	bnez	a0,80000220 <strcmp+0x28>
800002a4:	00008067          	ret

800002a8 <memset>:
800002a8:	0ff5f593          	zext.b	a1,a1
800002ac:	00050793          	mv	a5,a0
800002b0:	00a60733          	add	a4,a2,a0
800002b4:	00060863          	beqz	a2,800002c4 <memset+0x1c>
800002b8:	00b78023          	sb	a1,0(a5)
800002bc:	00178793          	addi	a5,a5,1
800002c0:	fee79ce3          	bne	a5,a4,800002b8 <memset+0x10>
800002c4:	00008067          	ret

800002c8 <memcmp>:
800002c8:	02060a63          	beqz	a2,800002fc <memcmp+0x34>
800002cc:	00050793          	mv	a5,a0
800002d0:	00c50633          	add	a2,a0,a2
800002d4:	0080006f          	j	800002dc <memcmp+0x14>
800002d8:	02c78063          	beq	a5,a2,800002f8 <memcmp+0x30>
800002dc:	0007c683          	lbu	a3,0(a5)
800002e0:	0005c703          	lbu	a4,0(a1)
800002e4:	00178793          	addi	a5,a5,1
800002e8:	00158593          	addi	a1,a1,1
800002ec:	40e68533          	sub	a0,a3,a4
800002f0:	fee684e3          	beq	a3,a4,800002d8 <memcmp+0x10>
800002f4:	00008067          	ret
800002f8:	00008067          	ret
800002fc:	00000513          	li	a0,0
80000300:	00008067          	ret
